; Function Attrs: nounwind uwtable
define void @Gia_ParTestSimulateInit(ptr noundef readonly captures(none) %0) local_unnamed_addr #2 {
  %2 = getelementptr i8, ptr %0, i64 32
  %3 = getelementptr inbounds nuw i8, ptr %0, i64 64
  %4 = load ptr, ptr %3, align 8, !tbaa !42
  %5 = getelementptr i8, ptr %4, i64 4
  %.val20 = load i32, ptr %5, align 4, !tbaa !29
  %6 = icmp sgt i32 %.val20, 0
  br i1 %6, label %.lr.ph23, label %.critedge

.lr.ph23:                                         ; preds = %1
  %7 = getelementptr i8, ptr %0, i64 768
  %8 = getelementptr i8, ptr %0, i64 784
  br label %9

9:                                                ; preds = %.lr.ph23, %._crit_edge
  %10 = phi ptr [ %4, %.lr.ph23 ], [ %24, %._crit_edge ]
  %indvars.iv26 = phi i64 [ 0, %.lr.ph23 ], [ %indvars.iv.next27, %._crit_edge ]
  %.val17 = load ptr, ptr %2, align 8, !tbaa !30
  %.not = icmp eq ptr %.val17, null
  br i1 %.not, label %.critedge, label %11

11:                                               ; preds = %9
  %12 = getelementptr i8, ptr %10, i64 8
  %.val18.val = load ptr, ptr %12, align 8, !tbaa !31
  %13 = getelementptr inbounds nuw i32, ptr %.val18.val, i64 %indvars.iv26
  %14 = load i32, ptr %13, align 4, !tbaa !34
  %.val15 = load ptr, ptr %7, align 8, !tbaa !32
  %.val16 = load i32, ptr %8, align 8, !tbaa !33
  %15 = mul nsw i32 %.val16, %14
  %16 = sext i32 %15 to i64
  %17 = getelementptr inbounds i64, ptr %.val15, i64 %16
  %18 = icmp sgt i32 %.val16, 0
  br i1 %18, label %.lr.ph, label %._crit_edge

.lr.ph:                                           ; preds = %11, %.lr.ph
  %indvars.iv = phi i64 [ %indvars.iv.next, %.lr.ph ], [ 0, %11 ]
  %19 = tail call i64 @Gia_ManRandomW(i32 noundef 0) #18
  %20 = getelementptr inbounds nuw i64, ptr %17, i64 %indvars.iv
  store i64 %19, ptr %20, align 8, !tbaa !3
  %indvars.iv.next = add nuw nsw i64 %indvars.iv, 1
  %21 = load i32, ptr %8, align 8, !tbaa !33
  %22 = sext i32 %21 to i64
  %23 = icmp slt i64 %indvars.iv.next, %22
  br i1 %23, label %.lr.ph, label %._crit_edge.loopexit, !llvm.loop !43

._crit_edge.loopexit:                             ; preds = %.lr.ph
  %.pre = load ptr, ptr %3, align 8, !tbaa !42
  br label %._crit_edge

._crit_edge:                                      ; preds = %._crit_edge.loopexit, %11
  %24 = phi ptr [ %.pre, %._crit_edge.loopexit ], [ %10, %11 ]
  %indvars.iv.next27 = add nuw nsw i64 %indvars.iv26, 1
  %25 = getelementptr i8, ptr %24, i64 4
  %.val = load i32, ptr %25, align 4, !tbaa !29
  %26 = sext i32 %.val to i64
  %27 = icmp slt i64 %indvars.iv.next27, %26
  br i1 %27, label %9, label %.critedge, !llvm.loop !44

.critedge:                                        ; preds = %9, %._crit_edge, %1
  ret void
}